target datalayout = "e-m:e-p270:32:32-p271:32:32-p272:64:64-i64:64-i128:128-f80:128-n8:16:32:64-S128"
target triple = "x86_64-pc-linux-gnu"

@.str.182 = private unnamed_addr constant [3 x i8] c"$(\00", align 1

; Function Attrs: nounwind uwtable
define internal i32 @on_match_func(ptr noundef %0, ptr noundef %1, ptr noundef %2, ptr noundef %3) #0 {
  %5 = alloca ptr, align 8
  %6 = alloca ptr, align 8
  %7 = alloca ptr, align 8
  %8 = alloca ptr, align 8
  %9 = alloca i32, align 4
  %10 = alloca ptr, align 8
  %11 = alloca i32, align 4
  %12 = alloca i32, align 4
  %13 = alloca i32, align 4
  %14 = alloca i32, align 4
  %15 = alloca i32, align 4
  %16 = alloca ptr, align 8
  %17 = alloca ptr, align 8
  %18 = alloca ptr, align 8
  %19 = alloca ptr, align 8
  %20 = alloca ptr, align 8
  %21 = alloca ptr, align 8
  store ptr %0, ptr %5, align 8, !tbaa !13
  store ptr %1, ptr %6, align 8, !tbaa !28
  store ptr %2, ptr %7, align 8, !tbaa !23
  store ptr %3, ptr %8, align 8, !tbaa !25
  call void @llvm.lifetime.start.p0(i64 4, ptr %9) #9
  store i32 0, ptr %9, align 4, !tbaa !29
  call void @llvm.lifetime.start.p0(i64 8, ptr %10) #9
  %22 = load ptr, ptr %5, align 8, !tbaa !13
  %23 = call ptr @gtk_entry_completion_get_entry(ptr noundef %22)
  store ptr %23, ptr %10, align 8, !tbaa !26
  call void @llvm.lifetime.start.p0(i64 4, ptr %11) #9
  %24 = load ptr, ptr %10, align 8, !tbaa !26
  %25 = call i32 @gtk_editable_get_position(ptr noundef %24)
  store i32 %25, ptr %11, align 4, !tbaa !29
  call void @llvm.lifetime.start.p0(i64 4, ptr %12) #9
  store i32 0, ptr %12, align 4, !tbaa !29
  call void @llvm.lifetime.start.p0(i64 4, ptr %13) #9
  store i32 0, ptr %13, align 4, !tbaa !29
  call void @llvm.lifetime.start.p0(i64 4, ptr %14) #9
  %26 = load i32, ptr %11, align 4, !tbaa !29
  store i32 %26, ptr %14, align 4, !tbaa !29
  br label %27

27:                                               ; preds = %48, %4
  %28 = load i32, ptr %14, align 4, !tbaa !29
  %29 = icmp sge i32 %28, 0
  br i1 %29, label %31, label %30

30:                                               ; preds = %27
  store i32 2, ptr %15, align 4
  br label %51

31:                                               ; preds = %27
  call void @llvm.lifetime.start.p0(i64 8, ptr %16) #9
  %32 = load ptr, ptr %10, align 8, !tbaa !26
  %33 = load i32, ptr %14, align 4, !tbaa !29
  %34 = load i32, ptr %11, align 4, !tbaa !29
  %35 = call ptr @gtk_editable_get_chars(ptr noundef %32, i32 noundef %33, i32 noundef %34)
  store ptr %35, ptr %16, align 8, !tbaa !28
  %36 = load ptr, ptr %16, align 8, !tbaa !28
  %37 = call i32 @strncmp(ptr noundef %36, ptr noundef @.str.182, i64 noundef 2) #11
  %38 = icmp eq i32 %37, 0
  br i1 %38, label %39, label %43

39:                                               ; preds = %31
  %40 = load i32, ptr %14, align 4, !tbaa !29
  %41 = add nsw i32 %40, 2
  store i32 %41, ptr %12, align 4, !tbaa !29
  store i32 1, ptr %13, align 4, !tbaa !29
  %42 = load ptr, ptr %16, align 8, !tbaa !28
  call void @g_free(ptr noundef %42)
  store i32 2, ptr %15, align 4
  br label %45

43:                                               ; preds = %31
  %44 = load ptr, ptr %16, align 8, !tbaa !28
  call void @g_free(ptr noundef %44)
  store i32 0, ptr %15, align 4
  br label %45

45:                                               ; preds = %43, %39
  call void @llvm.lifetime.end.p0(i64 8, ptr %16) #9
  %46 = load i32, ptr %15, align 4
  switch i32 %46, label %51 [
    i32 0, label %47
  ]

47:                                               ; preds = %45
  br label %48

48:                                               ; preds = %47
  %49 = load i32, ptr %14, align 4, !tbaa !29
  %50 = add nsw i32 %49, -1
  store i32 %50, ptr %14, align 4, !tbaa !29
  br label %27

51:                                               ; preds = %45, %30
  call void @llvm.lifetime.end.p0(i64 4, ptr %14) #9
  br label %52

52:                                               ; preds = %51
  %53 = load i32, ptr %13, align 4, !tbaa !29
  %54 = icmp ne i32 %53, 0
  br i1 %54, label %55, label %88

55:                                               ; preds = %52
  call void @llvm.lifetime.start.p0(i64 8, ptr %17) #9
  %56 = load ptr, ptr %10, align 8, !tbaa !26
  %57 = load i32, ptr %12, align 4, !tbaa !29
  %58 = load i32, ptr %11, align 4, !tbaa !29
  %59 = call ptr @gtk_editable_get_chars(ptr noundef %56, i32 noundef %57, i32 noundef %58)
  store ptr %59, ptr %17, align 8, !tbaa !28
  call void @llvm.lifetime.start.p0(i64 8, ptr %18) #9
  %60 = load ptr, ptr %5, align 8, !tbaa !13
  %61 = call ptr @gtk_entry_completion_get_model(ptr noundef %60)
  store ptr %61, ptr %18, align 8, !tbaa !21
  call void @llvm.lifetime.start.p0(i64 8, ptr %19) #9
  store ptr null, ptr %19, align 8, !tbaa !28
  %62 = load ptr, ptr %18, align 8, !tbaa !21
  %63 = load ptr, ptr %7, align 8, !tbaa !23
  call void (ptr, ptr, ...) @gtk_tree_model_get(ptr noundef %62, ptr noundef %63, i32 noundef 0, ptr noundef %19, i32 noundef -1)
  %64 = load ptr, ptr %19, align 8, !tbaa !28
  %65 = icmp ne ptr %64, null
  br i1 %65, label %66, label %85

66:                                               ; preds = %55
  call void @llvm.lifetime.start.p0(i64 8, ptr %20) #9
  %67 = load ptr, ptr %19, align 8, !tbaa !28
  %68 = call noalias ptr @g_utf8_normalize(ptr noundef %67, i64 noundef -1, i32 noundef 2)
  store ptr %68, ptr %20, align 8, !tbaa !28
  %69 = load ptr, ptr %20, align 8, !tbaa !28
  %70 = icmp ne ptr %69, null
  br i1 %70, label %71, label %83

71:                                               ; preds = %66
  call void @llvm.lifetime.start.p0(i64 8, ptr %21) #9
  %72 = load ptr, ptr %20, align 8, !tbaa !28
  %73 = call noalias ptr @g_utf8_casefold(ptr noundef %72, i64 noundef -1)
  store ptr %73, ptr %21, align 8, !tbaa !28
  %74 = load ptr, ptr %17, align 8, !tbaa !28
  %75 = load ptr, ptr %21, align 8, !tbaa !28
  %76 = load ptr, ptr %17, align 8, !tbaa !28
  %77 = call i64 @strlen(ptr noundef %76) #11
  %78 = call i32 @g_ascii_strncasecmp(ptr noundef %74, ptr noundef %75, i64 noundef %77)
  %79 = icmp ne i32 %78, 0
  br i1 %79, label %81, label %80

80:                                               ; preds = %71
  store i32 1, ptr %9, align 4, !tbaa !29
  br label %81

81:                                               ; preds = %80, %71
  %82 = load ptr, ptr %21, align 8, !tbaa !28
  call void @g_free(ptr noundef %82)
  call void @llvm.lifetime.end.p0(i64 8, ptr %21) #9
  br label %83

83:                                               ; preds = %81, %66
  %84 = load ptr, ptr %20, align 8, !tbaa !28
  call void @g_free(ptr noundef %84)
  call void @llvm.lifetime.end.p0(i64 8, ptr %20) #9
  br label %85

85:                                               ; preds = %83, %55
  %86 = load ptr, ptr %17, align 8, !tbaa !28
  call void @g_free(ptr noundef %86)
  %87 = load ptr, ptr %19, align 8, !tbaa !28
  call void @g_free(ptr noundef %87)
  call void @llvm.lifetime.end.p0(i64 8, ptr %19) #9
  call void @llvm.lifetime.end.p0(i64 8, ptr %18) #9
  call void @llvm.lifetime.end.p0(i64 8, ptr %17) #9
  br label %88

88:                                               ; preds = %85, %52
  %89 = load i32, ptr %9, align 4, !tbaa !29
  store i32 1, ptr %15, align 4
  call void @llvm.lifetime.end.p0(i64 4, ptr %13) #9
  call void @llvm.lifetime.end.p0(i64 4, ptr %12) #9
  call void @llvm.lifetime.end.p0(i64 4, ptr %11) #9
  call void @llvm.lifetime.end.p0(i64 8, ptr %10) #9
  call void @llvm.lifetime.end.p0(i64 4, ptr %9) #9
  ret i32 %89
}