; Function Attrs: nounwind uwtable
define internal range(i32 0, 2) i32 @on_match_func(ptr noundef %0, ptr readnone captures(none) %1, ptr noundef %2, ptr readnone captures(none) %3) #0 {
  %5 = alloca ptr, align 8
  %6 = tail call ptr @gtk_entry_completion_get_entry(ptr noundef %0) #12
  %7 = tail call i32 @gtk_editable_get_position(ptr noundef %6) #12
  %8 = icmp sgt i32 %7, -1
  br i1 %8, label %sub_0, label %.thread44

sub_0:                                            ; preds = %4, %.tail.thread
  %.03449 = phi i32 [ %14, %.tail.thread ], [ %7, %4 ]
  %9 = tail call ptr @gtk_editable_get_chars(ptr noundef %6, i32 noundef %.03449, i32 noundef %7) #12
  %10 = load i8, ptr %9, align 1
  %.not50 = icmp eq i8 %10, 36
  br i1 %.not50, label %.tail, label %.tail.thread

.tail:                                            ; preds = %sub_0
  %11 = getelementptr inbounds nuw i8, ptr %9, i64 1
  %12 = load i8, ptr %11, align 1
  %13 = icmp eq i8 %12, 40
  br i1 %13, label %16, label %.tail.thread

.tail.thread:                                     ; preds = %sub_0, %.tail
  tail call void @g_free(ptr noundef nonnull %9) #12
  %14 = add nsw i32 %.03449, -1
  %15 = icmp sgt i32 %.03449, 0
  br i1 %15, label %sub_0, label %.thread44

16:                                               ; preds = %.tail
  %17 = add nuw nsw i32 %.03449, 2
  tail call void @g_free(ptr noundef nonnull %9) #12
  %18 = tail call ptr @gtk_editable_get_chars(ptr noundef %6, i32 noundef %17, i32 noundef %7) #12
  %19 = tail call ptr @gtk_entry_completion_get_model(ptr noundef %0) #12
  call void @llvm.lifetime.start.p0(i64 8, ptr nonnull %5) #12
  store ptr null, ptr %5, align 8, !tbaa !15
  call void (ptr, ptr, ...) @gtk_tree_model_get(ptr noundef %19, ptr noundef %2, i32 noundef 0, ptr noundef nonnull %5, i32 noundef -1) #12
  %20 = load ptr, ptr %5, align 8, !tbaa !15
  %.not39 = icmp eq ptr %20, null
  br i1 %.not39, label %28, label %21

21:                                               ; preds = %16
  %22 = call noalias ptr @g_utf8_normalize(ptr noundef nonnull %20, i64 noundef -1, i32 noundef 2) #12
  %.not40 = icmp eq ptr %22, null
  br i1 %.not40, label %27, label %23

23:                                               ; preds = %21
  %24 = call noalias ptr @g_utf8_casefold(ptr noundef nonnull %22, i64 noundef -1) #12
  %25 = call i64 @strlen(ptr noundef nonnull dereferenceable(1) %18) #14
  %26 = call i32 @g_ascii_strncasecmp(ptr noundef nonnull %18, ptr noundef %24, i64 noundef %25) #12
  %.not41 = icmp eq i32 %26, 0
  %spec.select = zext i1 %.not41 to i32
  call void @g_free(ptr noundef %24) #12
  br label %27

27:                                               ; preds = %23, %21
  %.2 = phi i32 [ %spec.select, %23 ], [ 0, %21 ]
  call void @g_free(ptr noundef %22) #12
  br label %28

28:                                               ; preds = %27, %16
  %.1 = phi i32 [ %.2, %27 ], [ 0, %16 ]
  call void @g_free(ptr noundef %18) #12
  %29 = load ptr, ptr %5, align 8, !tbaa !15
  call void @g_free(ptr noundef %29) #12
  call void @llvm.lifetime.end.p0(i64 8, ptr nonnull %5) #12
  br label %.thread44

.thread44:                                        ; preds = %.tail.thread, %4, %28
  %.0 = phi i32 [ %.1, %28 ], [ 0, %4 ], [ 0, %.tail.thread ]
  ret i32 %.0
}